target datalayout = "e-m:e-p270:32:32-p271:32:32-p272:64:64-i64:64-i128:128-f80:128-n8:16:32:64-S128"
target triple = "x86_64-pc-linux-gnu"

%struct.Vec_Int_t_ = type { i32, i32, ptr }
%struct.Abc_Ntk_t_ = type { i32, i32, ptr, ptr, ptr, ptr, ptr, ptr, ptr, ptr, ptr, ptr, ptr, [11 x i32], i32, i32, i32, i32, ptr, i32, ptr, ptr, i32, i32, i32, double, i32, %struct.Vec_Int_t_, ptr, ptr, ptr, ptr, ptr, float, i32, ptr, ptr, ptr, ptr, ptr, ptr, ptr, ptr, ptr, ptr, ptr, ptr, ptr, ptr, ptr, ptr, ptr, ptr, ptr, ptr, ptr, ptr }

@.str.1 = private unnamed_addr constant [2 x i8] c"w\00", align 1
@stdout = external global ptr, align 8
@.str.2 = private unnamed_addr constant [41 x i8] c"Cannot open the intermediate file \22%s\22.\0A\00", align 1
@.str.30 = private unnamed_addr constant [7 x i8] c"%s.dot\00", align 1

; Function Attrs: nounwind uwtable
define internal void @Abc_ShowGetFileName(ptr noundef %0, ptr noundef %1) #0 {
  %3 = alloca ptr, align 8
  %4 = alloca ptr, align 8
  %5 = alloca ptr, align 8
  store ptr %0, ptr %3, align 8, !tbaa !10
  store ptr %1, ptr %4, align 8, !tbaa !10
  call void @llvm.lifetime.start.p0(i64 8, ptr %5) #8
  %6 = load ptr, ptr %4, align 8, !tbaa !10
  %7 = load ptr, ptr %3, align 8, !tbaa !10
  %8 = call i32 (ptr, ptr, ...) @sprintf(ptr noundef %6, ptr noundef @.str.30, ptr noundef %7) #8
  %9 = load ptr, ptr %4, align 8, !tbaa !10
  store ptr %9, ptr %5, align 8, !tbaa !10
  br label %10

10:                                               ; preds = %52, %2
  %11 = load ptr, ptr %5, align 8, !tbaa !10
  %12 = load i8, ptr %11, align 1, !tbaa !39
  %13 = icmp ne i8 %12, 0
  br i1 %13, label %14, label %55

14:                                               ; preds = %10
  %15 = load ptr, ptr %5, align 8, !tbaa !10
  %16 = load i8, ptr %15, align 1, !tbaa !39
  %17 = sext i8 %16 to i32
  %18 = icmp sge i32 %17, 48
  br i1 %18, label %19, label %24

19:                                               ; preds = %14
  %20 = load ptr, ptr %5, align 8, !tbaa !10
  %21 = load i8, ptr %20, align 1, !tbaa !39
  %22 = sext i8 %21 to i32
  %23 = icmp sle i32 %22, 57
  br i1 %23, label %51, label %24

24:                                               ; preds = %19, %14
  %25 = load ptr, ptr %5, align 8, !tbaa !10
  %26 = load i8, ptr %25, align 1, !tbaa !39
  %27 = sext i8 %26 to i32
  %28 = icmp sge i32 %27, 97
  br i1 %28, label %29, label %34

29:                                               ; preds = %24
  %30 = load ptr, ptr %5, align 8, !tbaa !10
  %31 = load i8, ptr %30, align 1, !tbaa !39
  %32 = sext i8 %31 to i32
  %33 = icmp sle i32 %32, 122
  br i1 %33, label %51, label %34

34:                                               ; preds = %29, %24
  %35 = load ptr, ptr %5, align 8, !tbaa !10
  %36 = load i8, ptr %35, align 1, !tbaa !39
  %37 = sext i8 %36 to i32
  %38 = icmp sge i32 %37, 65
  br i1 %38, label %39, label %44

39:                                               ; preds = %34
  %40 = load ptr, ptr %5, align 8, !tbaa !10
  %41 = load i8, ptr %40, align 1, !tbaa !39
  %42 = sext i8 %41 to i32
  %43 = icmp sle i32 %42, 90
  br i1 %43, label %51, label %44

44:                                               ; preds = %39, %34
  %45 = load ptr, ptr %5, align 8, !tbaa !10
  %46 = load i8, ptr %45, align 1, !tbaa !39
  %47 = sext i8 %46 to i32
  %48 = icmp eq i32 %47, 46
  br i1 %48, label %51, label %49

49:                                               ; preds = %44
  %50 = load ptr, ptr %5, align 8, !tbaa !10
  store i8 95, ptr %50, align 1, !tbaa !39
  br label %51

51:                                               ; preds = %49, %44, %39, %29, %19
  br label %52

52:                                               ; preds = %51
  %53 = load ptr, ptr %5, align 8, !tbaa !10
  %54 = getelementptr inbounds nuw i8, ptr %53, i32 1
  store ptr %54, ptr %5, align 8, !tbaa !10
  br label %10, !llvm.loop !40

55:                                               ; preds = %10
  call void @llvm.lifetime.end.p0(i64 8, ptr %5) #8
  ret void
}

; Function Attrs: nounwind uwtable
define void @Abc_NtkShowFlopDependency(ptr noundef %0) #0 {
  %2 = alloca ptr, align 8
  %3 = alloca ptr, align 8
  %4 = alloca [200 x i8], align 16
  %5 = alloca i32, align 4
  store ptr %0, ptr %2, align 8, !tbaa !42
  call void @llvm.lifetime.start.p0(i64 8, ptr %3) #8
  call void @llvm.lifetime.start.p0(i64 200, ptr %4) #8
  %6 = load ptr, ptr %2, align 8, !tbaa !42
  %7 = getelementptr inbounds nuw %struct.Abc_Ntk_t_, ptr %6, i32 0, i32 2
  %8 = load ptr, ptr %7, align 8, !tbaa !44
  %9 = getelementptr inbounds [200 x i8], ptr %4, i64 0, i64 0
  call void @Abc_ShowGetFileName(ptr noundef %8, ptr noundef %9)
  %10 = getelementptr inbounds [200 x i8], ptr %4, i64 0, i64 0
  %11 = call noalias ptr @fopen(ptr noundef %10, ptr noundef @.str.1)
  store ptr %11, ptr %3, align 8, !tbaa !12
  %12 = icmp eq ptr %11, null
  br i1 %12, label %13, label %17

13:                                               ; preds = %1
  %14 = load ptr, ptr @stdout, align 8, !tbaa !12
  %15 = getelementptr inbounds [200 x i8], ptr %4, i64 0, i64 0
  %16 = call i32 (ptr, ptr, ...) @fprintf(ptr noundef %14, ptr noundef @.str.2, ptr noundef %15) #8
  store i32 1, ptr %5, align 4
  br label %23

17:                                               ; preds = %1
  %18 = load ptr, ptr %3, align 8, !tbaa !12
  %19 = call i32 @fclose(ptr noundef %18)
  %20 = load ptr, ptr %2, align 8, !tbaa !42
  %21 = getelementptr inbounds [200 x i8], ptr %4, i64 0, i64 0
  call void @Abc_NtkWriteFlopDependency(ptr noundef %20, ptr noundef %21)
  %22 = getelementptr inbounds [200 x i8], ptr %4, i64 0, i64 0
  call void @Abc_ShowFile(ptr noundef %22, i32 noundef 0)
  store i32 0, ptr %5, align 4
  br label %23

23:                                               ; preds = %17, %13
  call void @llvm.lifetime.end.p0(i64 200, ptr %4) #8
  call void @llvm.lifetime.end.p0(i64 8, ptr %3) #8
  %24 = load i32, ptr %5, align 4
  switch i32 %24, label %26 [
    i32 0, label %25
    i32 1, label %25
  ]

25:                                               ; preds = %23, %23
  ret void

26:                                               ; preds = %23
  unreachable
}