; Function Attrs: nounwind uwtable
define void @Abc_NtkShowFlopDependency(ptr noundef %0) local_unnamed_addr #0 {
  %2 = alloca [200 x i8], align 16
  call void @llvm.lifetime.start.p0(i64 200, ptr nonnull %2) #10
  %3 = getelementptr inbounds nuw i8, ptr %0, i64 8
  %4 = load ptr, ptr %3, align 8, !tbaa !49
  %5 = call i32 (ptr, ptr, ...) @sprintf(ptr noundef nonnull dereferenceable(1) %2, ptr noundef nonnull dereferenceable(1) @.str.30, ptr noundef %4) #10
  %6 = load i8, ptr %2, align 16, !tbaa !31
  %.not21.i = icmp eq i8 %6, 0
  br i1 %.not21.i, label %Abc_ShowGetFileName.exit, label %.lr.ph.i

.lr.ph.i:                                         ; preds = %1, %14
  %7 = phi i8 [ %16, %14 ], [ %6, %1 ]
  %.022.i = phi ptr [ %15, %14 ], [ %2, %1 ]
  %8 = add i8 %7, -48
  %or.cond.i = icmp ult i8 %8, 10
  %9 = add i8 %7, -97
  %or.cond17.i = icmp ult i8 %9, 26
  %or.cond20.i = or i1 %or.cond.i, %or.cond17.i
  br i1 %or.cond20.i, label %14, label %10

10:                                               ; preds = %.lr.ph.i
  %11 = add i8 %7, -65
  %or.cond18.i = icmp ult i8 %11, 26
  %12 = icmp eq i8 %7, 46
  %or.cond19.i = or i1 %12, %or.cond18.i
  br i1 %or.cond19.i, label %14, label %13

13:                                               ; preds = %10
  store i8 95, ptr %.022.i, align 1, !tbaa !31
  br label %14

14:                                               ; preds = %13, %10, %.lr.ph.i
  %15 = getelementptr inbounds nuw i8, ptr %.022.i, i64 1
  %16 = load i8, ptr %15, align 1, !tbaa !31
  %.not.i = icmp eq i8 %16, 0
  br i1 %.not.i, label %Abc_ShowGetFileName.exit, label %.lr.ph.i, !llvm.loop !32

Abc_ShowGetFileName.exit:                         ; preds = %14, %1
  %17 = call noalias ptr @fopen(ptr noundef nonnull %2, ptr noundef nonnull @.str.1)
  %18 = icmp eq ptr %17, null
  br i1 %18, label %19, label %22

19:                                               ; preds = %Abc_ShowGetFileName.exit
  %20 = load ptr, ptr @stdout, align 8, !tbaa !8
  %21 = call i32 (ptr, ptr, ...) @fprintf(ptr noundef %20, ptr noundef nonnull @.str.2, ptr noundef nonnull %2) #10
  br label %24

22:                                               ; preds = %Abc_ShowGetFileName.exit
  %23 = tail call i32 @fclose(ptr noundef nonnull %17)
  call void @Abc_NtkWriteFlopDependency(ptr noundef %0, ptr noundef nonnull %2)
  call void @Abc_ShowFile(ptr noundef nonnull %2, i32 noundef 0)
  br label %24

24:                                               ; preds = %22, %19
  call void @llvm.lifetime.end.p0(i64 200, ptr nonnull %2) #10
  ret void
}